(dp0
S'scaler2'
p1
ccopy_reg
_reconstructor
p2
(csklearn.preprocessing.data
StandardScaler
p3
c__builtin__
object
p4
Ntp5
Rp6
(dp7
S'mean_'
p8
cnumpy.core.multiarray
_reconstruct
p9
(cnumpy
ndarray
p10
(I0
tp11
S'b'
p12
tp13
Rp14
(I1
(L1L
tp15
cnumpy
dtype
p16
(S'f8'
p17
I0
I1
tp18
Rp19
(I3
S'<'
p20
NNNI-1
I-1
I0
tp21
bI00
S'\x1a\xed1\xf1\xbcHl<'
p22
tp23
bsS'with_mean'
p24
I01
sS'var_'
p25
g9
(g10
(I0
tp26
g12
tp27
Rp28
(I1
(L1L
tp29
g19
I00
S'\x01\x00\x00\x00\x00\x00\xf0?'
p30
tp31
bsS'scale_'
p32
g9
(g10
(I0
tp33
g12
tp34
Rp35
(I1
(L1L
tp36
g19
I00
S'\x00\x00\x00\x00\x00\x00\xf0?'
p37
tp38
bsS'with_std'
p39
I01
sS'n_samples_seen_'
p40
cnumpy.core.multiarray
scalar
p41
(g16
(S'i8'
p42
I0
I1
tp43
Rp44
(I3
S'<'
p45
NNNI-1
I-1
I0
tp46
bS'\xefL\x00\x00\x00\x00\x00\x00'
p47
tp48
Rp49
sS'_sklearn_version'
p50
S'0.20.4'
p51
sS'copy'
p52
I01
sbsS'scaler1'
p53
g2
(g3
g4
Ntp54
Rp55
(dp56
g8
g9
(g10
(I0
tp57
g12
tp58
Rp59
(I1
(L1L
tp60
g19
I00
S'\xb5\xda\x1a\xf2\xa2x\xe1?'
p61
tp62
bsg24
I01
sg25
g9
(g10
(I0
tp63
g12
tp64
Rp65
(I1
(L1L
tp66
g19
I00
S'\xb7\x85\xdf\xc2v4$@'
p67
tp68
bsg32
g9
(g10
(I0
tp69
g12
tp70
Rp71
(I1
(L1L
tp72
g19
I00
S'n\xb7\x95\xf0pm\t@'
p73
tp74
bsg39
I01
sg40
g41
(g44
S'\xefL\x00\x00\x00\x00\x00\x00'
p75
tp76
Rp77
sg50
g51
sg52
I01
sbs.