(dp0
S'train_acc'
p1
cnumpy.core.multiarray
scalar
p2
(cnumpy
dtype
p3
(S'f8'
p4
I0
I1
tp5
Rp6
(I3
S'<'
p7
NNNI-1
I-1
I0
tp8
bS'\x00\x00\x00\x00\x00@:@'
p9
tp10
Rp11
sS'train_probs'
p12
(lp13
(lp14
F0.2608572783361049
aF0.24987352225112014
aF0.25204464598932186
aF0.23722455342345317
aa(lp15
F0.21674310386669357
aF0.24424059582952198
aF0.2528874767538737
aF0.2861288235499108
aa(lp16
F0.2508308687606772
aF0.2537261365056553
aF0.24919650492831966
aF0.24624648980534783
aa(lp17
F0.24882074446074015
aF0.24805399470890627
aF0.2520742141976038
aF0.2510510466327499
aa(lp18
F0.3480070217677002
aF0.3480070217677002
aF0.15199297823229985
aF0.15199297823229985
aa(lp19
F0.2310670141322368
aF0.2644619206386527
aF0.23838464356555428
aF0.2660864216635561
aa(lp20
F0.2496061947665807
aF0.25372693199824
aF0.24984326935259857
aF0.2468236038825809
aa(lp21
F0.24994186819730066
aF0.24121992695416183
aF0.25280089698785685
aF0.25603730786068063
aa(lp22
F0.23973212895006932
aF0.300313484712583
aF0.33471041389994477
aF0.12524397243740287
aa(lp23
F0.26009443135993704
aF0.26009443135993704
aF0.26009443135993704
aF0.21971670592018885
aa(lp24
F0.25461592699949775
aF0.2531551971274228
aF0.24985664552123554
aF0.2423722303518439
aa(lp25
F0.24982805341383948
aF0.2561614559050621
aF0.2460410812639425
aF0.24796940941715587
aa(lp26
F0.28776895385336704
aF0.250512518413492
aF0.25389051152511843
aF0.2078280162080226
aa(lp27
F0.25164606253947025
aF0.2417624697892717
aF0.2564646875583604
aF0.25012678011289763
aa(lp28
F0.2616240739110627
aF0.25100613658133586
aF0.2309060533449154
aF0.25646373616268603
aa(lp29
F0.25089936344520347
aF0.252066639914281
aF0.24237712105321155
aF0.2546568755873039
aa(lp30
F0.2476806439424872
aF0.24472015780254325
aF0.24934056852262468
aF0.25825862973234476
aa(lp31
F0.244759984975124
aF0.24656065438111915
aF0.24847735897541465
aF0.2602020016683424
aa(lp32
F0.2614528195422047
aF0.2478895463630335
aF0.23770549624953802
aF0.2529521378452239
aa(lp33
F0.13323082567823338
aF0.28563886404228767
aF0.2902772074066466
aF0.2908531028728324
aa(lp34
F0.22308879288590772
aF0.25750312075413345
aF0.3012391859981161
aF0.21816890036184267
aa(lp35
F0.25
aF0.25
aF0.25
aF0.25
aa(lp36
F0.2601531241840333
aF0.2631972934779764
aF0.2327752490788271
aF0.2438743332591632
aa(lp37
F0.1897609568307926
aF0.18891373617965018
aF0.19369181181521933
aF0.4276334951743379
aa(lp38
F0.22674767541889124
aF0.2680348512540222
aF0.2600905842952523
aF0.24512688903183422
aa(lp39
F0.2496595862945437
aF0.2496595862945437
aF0.25731101492507613
aF0.24336981248583636
aa(lp40
F0.26601007582660996
aF0.24002242948270575
aF0.23589870537250848
aF0.25806878931817584
aa(lp41
F0.18786265735635155
aF0.3351719716930205
aF0.23310479123275618
aF0.24386057971787184
aa(lp42
F0.25795038116495533
aF0.2500003726594402
aF0.253163134779499
aF0.23888611139610547
aa(lp43
F0.2512785807203662
aF0.2401048974939558
aF0.24322298838778225
aF0.2653935333978957
aa(lp44
F0.220628542846937
aF0.2608537529405605
aF0.2479399901348913
aF0.2705777140776111
aa(lp45
F0.20607788026411675
aF0.2273866111504151
aF0.3155268485929363
aF0.25100865999253197
aa(lp46
F0.2541887231926012
aF0.24790698074859607
aF0.2533643044646483
aF0.24453999159415438
aa(lp47
F0.2598578605804861
aF0.25985698626311377
aF0.2405718978401972
aF0.23971325531620297
aa(lp48
F0.24271603663001046
aF0.24911676924361428
aF0.25634910289546725
aF0.25181809123090804
aa(lp49
F0.23748889235094717
aF0.31234460711908324
aF0.2100610882666979
aF0.24010541226327176
aa(lp50
F0.21405578208688003
aF0.23463494032295162
aF0.2672596523700991
aF0.28404962522006916
aa(lp51
F0.30532217298839626
aF0.3108217521634243
aF0.17844353143151784
aF0.20541254341666168
aa(lp52
F0.2469831318878591
aF0.2346624127610965
aF0.3235806376686659
aF0.1947738176823786
aa(lp53
F0.24939643093919192
aF0.24124059835347647
aF0.2613920300846001
aF0.24797094062273148
aa(lp54
F0.2465395999215446
aF0.26622598303358386
aF0.24350891885473266
aF0.24372549819013878
aa(lp55
F0.2846534661753464
aF0.19612378886625165
aF0.2610682702471996
aF0.25815447471120245
aa(lp56
F0.22069074530227573
aF0.21446455471027856
aF0.29766288917239064
aF0.26718181081505493
aa(lp57
F0.2775840390874218
aF0.23291609697339372
aF0.26819504684195145
aF0.221304817097233
aa(lp58
F0.21986898107991168
aF0.26755271023534183
aF0.235942183730276
aF0.2766361249544704
aa(lp59
F0.2720737872147342
aF0.3452856290417598
aF0.220206903793474
aF0.16243367995003197
aa(lp60
F0.2633027882142737
aF0.2596923082527766
aF0.2045229505527345
aF0.27248195298021516
aa(lp61
F0.23595127873315833
aF0.2601320720849803
aF0.25374198746169246
aF0.2501746617201689
aa(lp62
F0.23950407817165173
aF0.25232278340913644
aF0.24558669477028858
aF0.2625864436489233
aa(lp63
F0.3170763855091902
aF0.2473833114640301
aF0.23069445692961227
aF0.2048458460971673
aa(lp64
F0.26642627014921705
aF0.22422418894004728
aF0.2611125101433296
aF0.24823703076740625
aa(lp65
F0.28589114864617626
aF0.14167520538355993
aF0.2587678041170507
aF0.31366584185321317
aa(lp66
F0.2324473695307969
aF0.3339867120851678
aF0.2193274094553292
aF0.21423850892870613
aa(lp67
F0.235434759227671
aF0.21624482416915408
aF0.2553935246318855
aF0.2929268919712894
aa(lp68
F0.2655500548152421
aF0.2544819047729794
aF0.2224304894227995
aF0.2575375509889791
aa(lp69
F0.25666003932272974
aF0.25478071823819637
aF0.2510308221128397
aF0.2375284203262343
aa(lp70
F0.2596249475249511
aF0.25137543503538057
aF0.2619845935308467
aF0.2270150239088217
aa(lp71
F0.25914452892835044
aF0.2550371992390408
aF0.22534156704286817
aF0.2604767047897407
aa(lp72
F0.2297857911480204
aF0.2657692447365552
aF0.22895343613616423
aF0.27549152797926013
aa(lp73
F0.2586398710906369
aF0.25728365462952535
aF0.2529463648259364
aF0.2311301094539015
aa(lp74
F0.21950062242884966
aF0.24934019811437583
aF0.28003058126938346
aF0.251128598187391
aa(lp75
F0.22708493935279608
aF0.23503242347734213
aF0.22882235854099425
aF0.30906027862886754
aa(lp76
F0.2426086055755052
aF0.2554990393198357
aF0.2555399396641143
aF0.24635241544054481
aa(lp77
F0.2666441774920882
aF0.2538417325024251
aF0.22798487027960046
aF0.2515292197258863
aa(lp78
F0.2516008606865728
aF0.24920509337137656
aF0.24852324392558042
aF0.2506708020164703
aa(lp79
F0.24622867281222136
aF0.24722200793907806
aF0.2559483565697125
aF0.25060096267898824
aa(lp80
F0.27459575538705266
aF0.2136801463532425
aF0.23067920272793266
aF0.2810448955317722
aa(lp81
F0.24305449282404162
aF0.25170819058885185
aF0.29180735283140646
aF0.2134299637557
aa(lp82
F0.24718722139122407
aF0.2561368206189302
aF0.2245318103888473
aF0.2721441476009984
aa(lp83
F0.2818640916191236
aF0.21567594451923472
aF0.25567884413188324
aF0.24678111972975836
aa(lp84
F0.256301786861557
aF0.25245788584245643
aF0.2400800176056629
aF0.2511603096903238
aa(lp85
F0.2501579284109219
aF0.2524450440060096
aF0.247509364894516
aF0.24988766268855264
aa(lp86
F0.2313763377291625
aF0.2686477126636118
aF0.2455367319992374
aF0.2544392176079883
aa(lp87
F0.2644573688597633
aF0.2573306689588398
aF0.21998690068214494
aF0.25822506149925206
aa(lp88
F0.1707231588805208
aF0.2824325296413721
aF0.2799441891862183
aF0.26690012229188875
aa(lp89
F0.24227382754704443
aF0.24905978836537537
aF0.2609934401277236
aF0.24767294395985648
aa(lp90
F0.23109557793968385
aF0.2561492072662027
aF0.2562969790605591
aF0.2564582357335544
aa(lp91
F0.23817957677876747
aF0.24105423025459835
aF0.2629007887832247
aF0.25786540418340953
aa(lp92
F0.3306725521063819
aF0.16986664115036834
aF0.31145868432159185
aF0.18800212242165795
aa(lp93
F0.2876302943231419
aF0.24679178314461528
aF0.234340244503108
aF0.2312376780291348
aa(lp94
F0.2413694435932913
aF0.26043420459062305
aF0.23099998204966551
aF0.26719636976642014
aa(lp95
F0.23951633154223045
aF0.24067288731685907
aF0.25735239953182004
aF0.2624583816090903
aa(lp96
F0.26469139220500837
aF0.21961102662108914
aF0.25335595833165303
aF0.2623416228422494
aa(lp97
F0.2493816174002846
aF0.21729363919448208
aF0.2561605681169334
aF0.27716417528829984
aa(lp98
F0.2556131642468941
aF0.2443105131734153
aF0.24174626117992074
aF0.2583300613997699
aa(lp99
F0.2360209705936219
aF0.27073862767687756
aF0.2055207108504427
aF0.2877196908790579
aa(lp100
F0.2598420677131753
aF0.2436283301791413
aF0.25042699146711733
aF0.2461026106405662
aa(lp101
F0.2721387025132019
aF0.24467900864735356
aF0.25801258045170644
aF0.22516970838773798
aa(lp102
F0.25494034745857863
aF0.24303846550847127
aF0.24780175008004884
aF0.2542194369529013
aa(lp103
F0.25218813162324527
aF0.24955118481360233
aF0.2515786966816023
aF0.24668198688155024
aa(lp104
F0.25003560963400745
aF0.25380044510652705
aF0.2489772597936741
aF0.24718668546579145
aa(lp105
F0.25016765219151516
aF0.24755023887098507
aF0.2469396912133543
aF0.25534241772414545
aa(lp106
F0.24928651766102852
aF0.2512015482783726
aF0.24960666234445522
aF0.24990527171614355
aa(lp107
F0.2695773300283776
aF0.25273643941811236
aF0.24233923506942645
aF0.2353469954840835
aa(lp108
F0.2882509714808095
aF0.28631130530879073
aF0.25337074658931946
aF0.17206697662108028
aa(lp109
F0.24195751409559896
aF0.2300824737809006
aF0.26580407194746786
aF0.2621559401760325
aa(lp110
F0.24869665534453134
aF0.2506780391137626
aF0.25054438681914476
aF0.2500809187225613
aa(lp111
F0.24968303286055046
aF0.2590011241640957
aF0.25723907862958234
aF0.23407676434577138
aa(lp112
F0.2561229730749435
aF0.24891473818635065
aF0.25488299344915855
aF0.24007929528954727
aa(lp113
F0.24670935173633746
aF0.24887142389424805
aF0.24980733993425744
aF0.2546118844351571
aa(lp114
F0.2584453604632943
aF0.2344136865074171
aF0.25143723009590474
aF0.2557037229333839
aa(lp115
F0.2694953255488005
aF0.18006110710519704
aF0.29486152897498824
aF0.25558203837101423
aa(lp116
F0.252444779550122
aF0.1946993778055672
aF0.26992411505899144
aF0.2829317275853194
aa(lp117
F0.2701627787669761
aF0.2534809921433255
aF0.28422327463479996
aF0.19213295445489836
aa(lp118
F0.25338543346395404
aF0.24690292787327092
aF0.25092649289136487
aF0.24878514577141028
aa(lp119
F0.2464706633008473
aF0.2523983376330677
aF0.24415586819171786
aF0.25697513087436724
aa(lp120
F0.31904292683925844
aF0.16621212293642695
aF0.3246186269514066
aF0.1901263232729081
aa(lp121
F0.2116072517662127
aF0.23778272661793454
aF0.26683788316886536
aF0.2837721384469874
aa(lp122
F0.2584310643311572
aF0.2578065851740934
aF0.23995270342744907
aF0.2438096470673003
aa(lp123
F0.24079706307659085
aF0.2538402206836837
aF0.2536149369324546
aF0.25174777930727077
aa(lp124
F0.19342380068615084
aF0.2605279182232603
aF0.21876908512001494
aF0.32727919597057403
aa(lp125
F0.2149585593153691
aF0.2880641451618125
aF0.21566206087516854
aF0.2813152346476498
aa(lp126
F0.25514602302891193
aF0.25608904846207087
aF0.2530568383876215
aF0.23570809012139574
aa(lp127
F0.24889918423695076
aF0.25389674091858633
aF0.23626222719478276
aF0.26094184764968015
aa(lp128
F0.25
aF0.25
aF0.25
aF0.25
aa(lp129
F0.23757872719012252
aF0.266846659410323
aF0.23348346423263294
aF0.26209114916692167
aa(lp130
F0.2555192537942184
aF0.24414148536172486
aF0.24779870849084235
aF0.25254055235321426
aa(lp131
F0.24389937001626144
aF0.2534447819161327
aF0.2502430665358501
aF0.2524127815317558
aa(lp132
F0.25434974089369544
aF0.20085646512664262
aF0.2904147183458534
aF0.25437907563380857
aa(lp133
F0.25644172608283716
aF0.25595978397054725
aF0.2516359230994258
aF0.23596256684718975
aa(lp134
F0.25715875743625194
aF0.24070934741196245
aF0.21961512103061392
aF0.28251677412117177
aa(lp135
F0.27331418440024646
aF0.2142461190195037
aF0.25198593826013793
aF0.260453758320112
aa(lp136
F0.2543142599470873
aF0.23147939774893328
aF0.2828608557870351
aF0.23134548651694434
aa(lp137
F0.2640557515870283
aF0.2543265648934236
aF0.24233434422227312
aF0.23928333929727488
aa(lp138
F0.26169950169872946
aF0.24097865987172506
aF0.24664273376785217
aF0.25067910466169335
aa(lp139
F0.25780139020215526
aF0.20889395348399764
aF0.28274450713184646
aF0.25056014918200087
aa(lp140
F0.22942293016441467
aF0.2550615531192429
aF0.2694490159755122
aF0.24606650074083034
aa(lp141
F0.24718249252209412
aF0.24191760980207128
aF0.2551268305380204
aF0.2557730671378143
aa(lp142
F0.2248630469453916
aF0.24517732124027905
aF0.28879645330659914
aF0.2411631785077303
aa(lp143
F0.2514954653213188
aF0.25147150737500223
aF0.24835970254794096
aF0.24867332475573806
aa(lp144
F0.23419735808475037
aF0.25586712873934636
aF0.25527357927740596
aF0.2546619338984972
aa(lp145
F0.26489855812997776
aF0.23734150878535562
aF0.25429394742449873
aF0.2434659856601678
aa(lp146
F0.24372909775984966
aF0.2579685371506203
aF0.2414177021789355
aF0.2568846629105945
aa(lp147
F0.246707621747173
aF0.2560884841807384
aF0.2577761734025065
aF0.2394277206695822
aa(lp148
F0.2523885220145979
aF0.25932602138622957
aF0.24094420276118775
aF0.24734125383798486
aa(lp149
F0.27454575594917074
aF0.2370609171199839
aF0.24903066567315085
aF0.23936266125769454
aa(lp150
F0.25619157203669873
aF0.2567503042199649
aF0.24102078634153998
aF0.24603733740179629
aa(lp151
F0.26955132952586847
aF0.2270045642224832
aF0.2467298477628644
aF0.25671425848878404
aa(lp152
F0.24073975500815314
aF0.26445126291959464
aF0.23275135559718788
aF0.26205762647506436
aa(lp153
F0.2752436866718629
aF0.2491681410966708
aF0.2330834586069509
aF0.24250471362451553
aa(lp154
F0.2573394566593894
aF0.24745338660433763
aF0.24978293843556787
aF0.24542421830070507
aa(lp155
F0.2560661272034693
aF0.24261040852390667
aF0.2518488800699048
aF0.24947458420271934
aa(lp156
F0.24088316495470288
aF0.2554814204081733
aF0.25275641424402007
aF0.2508790003931038
aa(lp157
F0.25907978945111154
aF0.25150435085458417
aF0.25440039437645817
aF0.23501546531784606
aa(lp158
F0.24127681804379014
aF0.2552232120677231
aF0.24454684023245896
aF0.25895312965602774
aa(lp159
F0.27184734987950465
aF0.23673492108877486
aF0.21732450447038906
aF0.2740932245613314
aa(lp160
F0.24741806953568185
aF0.2477962390966099
aF0.2538842073195816
aF0.25090148404812673
aa(lp161
F0.2733684059800655
aF0.2822569403310276
aF0.20489537460583174
aF0.23947927908307506
aa(lp162
F0.249198486618072
aF0.2505330815086658
aF0.2524920322865291
aF0.24777639958673298
aa(lp163
F0.31521777006655793
aF0.22774707466471472
aF0.24401783434378382
aF0.2130173209249436
aa(lp164
F0.25138271699106607
aF0.25034954054653585
aF0.2515368798147839
aF0.24673086264761424
aa(lp165
F0.2246155699858873
aF0.22240008160506117
aF0.2764921742045258
aF0.2764921742045258
aa(lp166
F0.21181602091739105
aF0.27026905950765423
aF0.2363461020685847
aF0.28156881750637
aa(lp167
F0.255202922110869
aF0.25837988202192913
aF0.23311653964198512
aF0.25330065622521686
aa(lp168
F0.2568981121083426
aF0.2336421323581283
aF0.2517540869442236
aF0.25770566858930544
aa(lp169
F0.27034238344933065
aF0.24807521713483666
aF0.2453478052497074
aF0.23623459416612516
aa(lp170
F0.2469185843545529
aF0.2500153462550488
aF0.31123052369624155
aF0.19183554569415673
aa(lp171
F0.23135174888978452
aF0.2597006832728805
aF0.26913311891770936
aF0.23981444891962575
aa(lp172
F0.28563897661343596
aF0.26385997684617735
aF0.19832356180120983
aF0.25217748473917684
aa(lp173
F0.24349496794123876
aF0.2354544763672415
aF0.25041293790960356
aF0.27063761778191614
aasS'train_label'
p174
(lp175
I1
aI1
aI2
aI1
aI1
aI2
aI2
aI0
aI3
aI2
aI3
aI2
aI0
aI2
aI0
aI1
aI3
aI0
aI3
aI0
aI3
aI1
aI1
aI1
aI2
aI0
aI3
aI1
aI1
aI1
aI2
aI1
aI1
aI0
aI2
aI2
aI2
aI1
aI3
aI1
aI2
aI2
aI3
aI1
aI3
aI0
aI3
aI1
aI2
aI3
aI3
aI3
aI1
aI1
aI3
aI0
aI1
aI0
aI0
aI0
aI3
aI3
aI1
aI1
aI1
aI3
aI3
aI1
aI2
aI3
aI3
aI3
aI0
aI0
aI0
aI3
aI3
aI3
aI3
aI3
aI3
aI1
aI3
aI2
aI0
aI3
aI0
aI3
aI3
aI2
aI0
aI2
aI3
aI2
aI0
aI3
aI2
aI1
aI2
aI0
aI3
aI3
aI0
aI1
aI2
aI1
aI2
aI3
aI1
aI3
aI1
aI1
aI2
aI3
aI2
aI1
aI2
aI2
aI2
aI0
aI0
aI0
aI0
aI2
aI2
aI0
aI0
aI2
aI2
aI2
aI3
aI1
aI1
aI0
aI1
aI1
aI3
aI0
aI0
aI2
aI2
aI3
aI1
aI2
aI1
aI3
aI1
aI1
aI0
aI1
aI2
aI3
aI2
aI1
aI1
aI1
aI3
aI1
aI2
aI1
as.