(dp0
S'train_acc'
p1
cnumpy.core.multiarray
scalar
p2
(cnumpy
dtype
p3
(S'f8'
p4
I0
I1
tp5
Rp6
(I3
S'<'
p7
NNNI-1
I-1
I0
tp8
bS'\x00\x00\x00\x00\x00@P@'
p9
tp10
Rp11
sS'train_probs'
p12
(lp13
(lp14
F0.3304076089140495
aF0.20645032807425076
aF0.20946858489839043
aF0.2536734781133092
aa(lp15
F0.2507575032095964
aF0.25052283564744127
aF0.25054086591357666
aF0.24817879522938574
aa(lp16
F0.24669773346606907
aF0.2515294919597909
aF0.2536873887927393
aF0.24808538578140074
aa(lp17
F0.2511354527686154
aF0.2533773012902698
aF0.2532414095232555
aF0.2422458364178595
aa(lp18
F0.25120939541936116
aF0.24985462050153454
aF0.24845205159640166
aF0.2504839324827026
aa(lp19
F0.2990950613181349
aF0.23448408900585122
aF0.23307993879877598
aF0.233340910877238
aa(lp20
F0.2509325653542442
aF0.24744750937618865
aF0.24752650247080268
aF0.25409342279876457
aa(lp21
F0.2552583009938441
aF0.21153539839373128
aF0.25485985085095114
aF0.2783464497614735
aa(lp22
F0.24930129029938464
aF0.2496180025597303
aF0.25132378241224756
aF0.24975692472863734
aa(lp23
F0.2456168027230123
aF0.25336167137762816
aF0.25021837197293967
aF0.2508031539264199
aa(lp24
F0.2865377251820791
aF0.16647559677980292
aF0.34808931272110233
aF0.19889736531701557
aa(lp25
F0.22828603321592195
aF0.23553531846821396
aF0.2454059184684649
aF0.2907727298473992
aa(lp26
F0.2517572093997695
aF0.22561935444592077
aF0.2530589695207678
aF0.2695644666335419
aa(lp27
F0.24664280908142372
aF0.2480192529018586
aF0.252622422872338
aF0.2527155151443796
aa(lp28
F0.25480022466249486
aF0.25359524496940655
aF0.23625176462573133
aF0.2553527657423672
aa(lp29
F0.2557090979073557
aF0.2647859264396522
aF0.22343327522875156
aF0.2560717004242407
aa(lp30
F0.23128256937216835
aF0.25678738851564814
aF0.2360798323986563
aF0.2758502097135272
aa(lp31
F0.24759448782561225
aF0.24385755190233174
aF0.24385755190233174
aF0.26469040836972424
aa(lp32
F0.24636730932631973
aF0.24175315415467247
aF0.2436722350620097
aF0.26820730145699817
aa(lp33
F0.21995282268617006
aF0.2404319787786262
aF0.263691737095373
aF0.2759234614398307
aa(lp34
F0.2377347270053517
aF0.25338323488041964
aF0.2543732764163508
aF0.25450876169787773
aa(lp35
F0.25920483725597937
aF0.22834345711272427
aF0.24321698735493566
aF0.26923471827636075
aa(lp36
F0.24159343805785402
aF0.24093798004888933
aF0.27343692179694923
aF0.24403166009630753
aa(lp37
F0.32166135292075565
aF0.18146490569820475
aF0.30833094355335994
aF0.1885427978276797
aa(lp38
F0.274270299049541
aF0.23361484341766378
aF0.23199601250271581
aF0.26011884503007937
aa(lp39
F0.25809598682523344
aF0.25808481818790147
aF0.249378724981917
aF0.23444047000494822
aa(lp40
F0.2697219203249644
aF0.24990660158301573
aF0.23322502405778292
aF0.2471464540342369
aa(lp41
F0.22718913042379088
aF0.2481843758269031
aF0.28454262692572496
aF0.24008386682358107
aa(lp42
F0.2477132466401092
aF0.23305697985722157
aF0.2613756857685686
aF0.25785408773410073
aa(lp43
F0.2682236851377924
aF0.21398701636918074
aF0.2590852484867423
aF0.25870405000628455
aa(lp44
F0.2392501046523934
aF0.25060189838530267
aF0.2590950694602454
aF0.2510529275020586
aa(lp45
F0.2462758913473151
aF0.24821400314060682
aF0.2738737169295955
aF0.23163638858248262
aa(lp46
F0.24129377465079274
aF0.2397556942827377
aF0.2403611287915073
aF0.2785894022749622
aa(lp47
F0.24987115707844118
aF0.23953331000377118
aF0.24113552854524434
aF0.26946000437254336
aa(lp48
F0.23325424509152465
aF0.24021830809535705
aF0.29237142150874684
aF0.23415602530437155
aa(lp49
F0.2747103721443984
aF0.22908182618680853
aF0.23330372560743573
aF0.26290407606135724
aa(lp50
F0.25
aF0.25
aF0.25
aF0.25
aa(lp51
F0.24701005971306597
aF0.27094856352684055
aF0.2457908909225098
aF0.23625048583758382
aa(lp52
F0.25155101263242935
aF0.2514518521246242
aF0.24004071164604346
aF0.25695642359690296
aa(lp53
F0.2759282479303954
aF0.2605833118961476
aF0.296144385511616
aF0.167344054661841
aa(lp54
F0.22968974748908272
aF0.22329945204712975
aF0.24915911963127074
aF0.2978516808325168
aa(lp55
F0.245599488173057
aF0.25178534064745467
aF0.25103469036391507
aF0.25158048081557316
aa(lp56
F0.2353575394723484
aF0.23233948294855206
aF0.2936065780418825
aF0.2386963995372171
aa(lp57
F0.25134107276310547
aF0.24636590788239324
aF0.25380763984164306
aF0.24848537951285823
aa(lp58
F0.25836188618566147
aF0.21976220581634326
aF0.25853861211578366
aF0.26333729588221155
aa(lp59
F0.23841296727464875
aF0.267222268510473
aF0.24332809669480512
aF0.25103666752007314
aa(lp60
F0.26923300319583504
aF0.2696788990294871
aF0.24373772075151387
aF0.21735037702316384
aa(lp61
F0.2730604941403791
aF0.21524309020747698
aF0.21675633505651604
aF0.29494008059562793
aa(lp62
F0.25132323911187426
aF0.2534728001213527
aF0.24961066697020143
aF0.24559329379657158
aa(lp63
F0.25263258191849175
aF0.24289813240149308
aF0.26370992565123885
aF0.24075936002877624
aa(lp64
F0.24729467676503364
aF0.32198347039370573
aF0.1872434794616853
aF0.2434783733795753
aa(lp65
F0.29713016091145505
aF0.2294000371304761
aF0.22885312277390413
aF0.24461667918416471
aa(lp66
F0.27860910406598466
aF0.2886269913696647
aF0.23519231527082454
aF0.19757158929352608
aa(lp67
F0.23311422404918578
aF0.23500308217800656
aF0.2659413468864038
aF0.2659413468864038
aa(lp68
F0.2252807787932275
aF0.2388795030108017
aF0.24845044967371446
aF0.2873892685222564
aa(lp69
F0.25330683844737933
aF0.25259661215270085
aF0.24960973714843607
aF0.24448681225148383
aa(lp70
F0.24638046352561252
aF0.2501391467004965
aF0.23084214799453484
aF0.2726382417793562
aa(lp71
F0.25
aF0.25
aF0.25
aF0.25
aa(lp72
F0.24184139082507256
aF0.2568975115552978
aF0.24231131767476433
aF0.2589497799448653
aa(lp73
F0.2419923040831916
aF0.2303827386686992
aF0.24665399192461485
aF0.2809709653234943
aa(lp74
F0.24328220864040603
aF0.25903997886433416
aF0.2693701518227224
aF0.2283076606725374
aa(lp75
F0.27380476927776154
aF0.21466551701166253
aF0.2543899738798269
aF0.257139739830749
aa(lp76
F0.249397536560465
aF0.2364954512801083
aF0.26319387518661586
aF0.2509131369728109
aa(lp77
F0.22639335447288936
aF0.24431104323972663
aF0.2764905912748473
aF0.2528050110125367
aa(lp78
F0.24621508889654056
aF0.22338983068565388
aF0.2984937489143156
aF0.23190133150348993
aa(lp79
F0.2561448279020252
aF0.2557381723035449
aF0.2508880915309172
aF0.23722890826351287
aa(lp80
F0.2702830937463712
aF0.2813577162739881
aF0.286866377154494
aF0.16149281282514683
aa(lp81
F0.25237842365403806
aF0.25237842365403806
aF0.25237842365403806
aF0.2428647290378858
aa(lp82
F0.2346135383034237
aF0.2621744910511093
aF0.2490126903647302
aF0.2541992802807368
aa(lp83
F0.24146633286831357
aF0.25550333003490305
aF0.2565475892205339
aF0.24648274787624944
aa(lp84
F0.2416912262695768
aF0.27151758789236075
aF0.2618493771645095
aF0.22494180867355293
aa(lp85
F0.32154140995681685
aF0.23865203210396527
aF0.23925406354700557
aF0.20055249439221245
aa(lp86
F0.2513184011505714
aF0.2335819744933495
aF0.2658165185043119
aF0.24928310585176727
aa(lp87
F0.31563893149446465
aF0.22374249875968924
aF0.24523762072186747
aF0.21538094902397856
aa(lp88
F0.2509537207299251
aF0.25072980400844874
aF0.24904936736929278
aF0.2492671078923333
aa(lp89
F0.25544285309959314
aF0.2467333091783633
aF0.23875601741051916
aF0.2590678203115245
aa(lp90
F0.27835283634196145
aF0.25383516658500643
aF0.2702045885717819
aF0.19760740850125033
aa(lp91
F0.2637455294496633
aF0.2601531976523049
aF0.23985255646309117
aF0.2362487164349407
aa(lp92
F0.191151166639681
aF0.24365876383146856
aF0.22670015561815895
aF0.3384899139106914
aa(lp93
F0.25436292722887455
aF0.23199308711292135
aF0.25911254923210036
aF0.2545314364261037
aa(lp94
F0.2520528249943319
aF0.2209375922493612
aF0.2942975347967172
aF0.23271204795958975
aa(lp95
F0.2668759727983212
aF0.25207689983775955
aF0.247588364179109
aF0.23345876318481015
aa(lp96
F0.22543189797780697
aF0.28349761232321763
aF0.24064869583726664
aF0.2504217938617087
aa(lp97
F0.23499570255797977
aF0.2600704067514603
aF0.20368948873452083
aF0.301244401956039
aa(lp98
F0.24202120956553638
aF0.2501928216651373
aF0.25554975404016794
aF0.25223621472915836
aa(lp99
F0.23153429132217743
aF0.21013868934090527
aF0.24283053434249108
aF0.3154964849944263
aa(lp100
F0.23707708600344718
aF0.2514873971174489
aF0.26814246669204783
aF0.24329305018705608
aa(lp101
F0.22644475728474292
aF0.25947715697069074
aF0.3034597609930048
aF0.2106183247515615
aa(lp102
F0.19698560303657026
aF0.21698584846717148
aF0.2989971373317076
aF0.2870314111645507
aa(lp103
F0.281885308773998
aF0.31827027527686597
aF0.19296266129627115
aF0.20688175465286496
aa(lp104
F0.2650084417286694
aF0.2263529578026648
aF0.30677690156812176
aF0.20186169890054406
aa(lp105
F0.19003700399162643
aF0.29157665352327383
aF0.1870044509827716
aF0.3313818915023281
aa(lp106
F0.23925010317834955
aF0.2738327718726904
aF0.25516047092161365
aF0.2317566540273464
aa(lp107
F0.2228780207759193
aF0.26192394742981756
aF0.2407159801892674
aF0.27448205160499567
aa(lp108
F0.24752087626281027
aF0.25558093840464297
aF0.25519851740346644
aF0.24169966792908038
aa(lp109
F0.21292209449559046
aF0.2671452912081192
aF0.2623708969053912
aF0.25756171739089906
aa(lp110
F0.26061620163360216
aF0.2307305360874635
aF0.25510807714668843
aF0.2535451851322459
aa(lp111
F0.23035451697235435
aF0.2873151616878377
aF0.24715556000160538
aF0.2351747613382025
aa(lp112
F0.2805790166449623
aF0.25860249455166584
aF0.21663455617738825
aF0.2441839326259836
aa(lp113
F0.24235446529386248
aF0.24081102852758424
aF0.256754039923825
aF0.26008046625472825
aa(lp114
F0.25693259158678866
aF0.24025785083071002
aF0.26159063096883095
aF0.24121892661367045
aa(lp115
F0.2560958201584224
aF0.2457043664581191
aF0.24905592040668478
aF0.24914389297677358
aa(lp116
F0.24339510931632186
aF0.2451735061239972
aF0.25212782205970447
aF0.25930356249997644
aa(lp117
F0.23212068709963948
aF0.2308981081517098
aF0.2814218516038299
aF0.25555935314482076
aa(lp118
F0.2618547412016439
aF0.19341942961009867
aF0.22513140636494983
aF0.31959442282330763
aa(lp119
F0.24526490820917274
aF0.25172322438510214
aF0.23706463302527644
aF0.26594723438044854
aa(lp120
F0.24818640192100283
aF0.2507019561280562
aF0.25234019045633965
aF0.24877145149460145
aa(lp121
F0.21079004080175012
aF0.2443159020472505
aF0.2997953676732292
aF0.2450986894777703
aa(lp122
F0.28324288438667355
aF0.2153099853255571
aF0.2738773034463313
aF0.2275698268414381
aa(lp123
F0.2453545838432401
aF0.2520749455554643
aF0.2526243339427985
aF0.2499461366584972
aa(lp124
F0.25946181789943296
aF0.22804885719129656
aF0.23159312283564062
aF0.28089620207362975
aa(lp125
F0.26384821028760286
aF0.24054032077627877
aF0.2465789588951783
aF0.24903251004094007
aa(lp126
F0.2453938698739948
aF0.23865475658600616
aF0.24075047085278678
aF0.2752009026872122
aa(lp127
F0.21614106842623204
aF0.24636197636666274
aF0.27004080157186067
aF0.26745615363524455
aa(lp128
F0.16583690777461407
aF0.2760932612180778
aF0.3224189131890553
aF0.23565091781825287
aa(lp129
F0.2125922723173971
aF0.2574624795371126
aF0.28453294598707407
aF0.24541230215841622
aa(lp130
F0.2638609644979681
aF0.23284686556554238
aF0.25267320552451705
aF0.25061896441197246
aa(lp131
F0.2599594548368281
aF0.13938800666299914
aF0.2522674497360172
aF0.3483850887641556
aa(lp132
F0.2494310060263855
aF0.3493741557122753
aF0.1623934214019448
aF0.2388014168593945
aa(lp133
F0.24944694469124484
aF0.24968255582726548
aF0.25031200506865803
aF0.25055849441283173
aa(lp134
F0.22743515889454274
aF0.22410267690221647
aF0.24323093768246892
aF0.3052312265207718
aa(lp135
F0.25526667985274853
aF0.25343849293041276
aF0.2539870474908586
aF0.23730777972598005
aa(lp136
F0.2501019044177681
aF0.2501772049500549
aF0.25047009597596737
aF0.24925079465620958
aa(lp137
F0.2539542086880145
aF0.20521949368425305
aF0.2767845767259039
aF0.26404172090182854
aa(lp138
F0.24343444324049782
aF0.2526644583732945
aF0.258262466519705
aF0.24563863186650273
aa(lp139
F0.24666607049172729
aF0.2540909561379815
aF0.26602091177615617
aF0.23322206159413514
aa(lp140
F0.24709950222176466
aF0.24685317956464498
aF0.24744680258799992
aF0.2586005156255905
aa(lp141
F0.2456350431167277
aF0.2578890543900039
aF0.24736918919497344
aF0.24910671329829484
aa(lp142
F0.24360470456377833
aF0.195100827757106
aF0.2779276524579567
aF0.28336681522115903
aa(lp143
F0.29839518733179776
aF0.231050882334954
aF0.23470301211260688
aF0.2358509182206415
aa(lp144
F0.2742583797873265
aF0.25219828516863513
aF0.2655983193339673
aF0.2079450157100711
aa(lp145
F0.20900992383988568
aF0.25391684204637044
aF0.25372654486423807
aF0.28334668924950585
aa(lp146
F0.2556142663574585
aF0.2458538732614345
aF0.2557732552147493
aF0.2427586051663576
aa(lp147
F0.34385128289662575
aF0.34385128289662575
aF0.15614871710337425
aF0.15614871710337425
aa(lp148
F0.23630592838356176
aF0.255184343012938
aF0.2742071162491676
aF0.23430261235433256
aa(lp149
F0.24807385497695653
aF0.25357890482729695
aF0.2387311249813676
aF0.25961611521437883
aa(lp150
F0.26538080418072163
aF0.2497915728485425
aF0.22977333500513722
aF0.2550542879655988
aa(lp151
F0.25582214314616974
aF0.23075575829930092
aF0.26511157830442533
aF0.24831052025010392
aa(lp152
F0.18523454862906277
aF0.26822389433746874
aF0.3203545291673413
aF0.2261870278661273
aa(lp153
F0.2640679687873192
aF0.26268647253005056
aF0.24520197309584035
aF0.2280435855867898
aa(lp154
F0.2169721945420091
aF0.27413684152100665
aF0.22638919558169393
aF0.2825017683552903
aa(lp155
F0.3379540459333896
aF0.3022689933983853
aF0.23710098625926454
aF0.12267597440896046
aa(lp156
F0.2698762383995117
aF0.25981454710444246
aF0.197935278296575
aF0.2723739361994708
aa(lp157
F0.24512414275210315
aF0.2380329363370415
aF0.24508386281478248
aF0.271759058096073
aa(lp158
F0.23979105978450577
aF0.2528273540218848
aF0.25434216875998544
aF0.2530394174336239
aa(lp159
F0.24211740131993575
aF0.2746033764988714
aF0.24353689255029123
aF0.23974232963090158
aa(lp160
F0.24270585719165372
aF0.24444574965226837
aF0.27553048371428474
aF0.23731790944179323
aa(lp161
F0.3139649445998188
aF0.24027227457640912
aF0.21934502799302716
aF0.22641775283074508
aa(lp162
F0.26215974282495047
aF0.2602655751459844
aF0.25072152895072997
aF0.22685315307833515
aa(lp163
F0.24183684805581246
aF0.2529968160986649
aF0.2529050311807576
aF0.25226130466476493
aa(lp164
F0.21667508706001612
aF0.2502219839944189
aF0.23790698136198385
aF0.29519594758358125
aa(lp165
F0.23713196281172444
aF0.2633750214433566
aF0.251252189287043
aF0.24824082645787585
aa(lp166
F0.2710640727248348
aF0.2597771964929616
aF0.22719964657157402
aF0.24195908421062945
aa(lp167
F0.22894115624191508
aF0.2428370535000834
aF0.2914884131856377
aF0.2367333770723639
aa(lp168
F0.23306248653246808
aF0.26066142421945104
aF0.2891811845560904
aF0.21709490469199058
aa(lp169
F0.2338731451755005
aF0.25053644192710245
aF0.24866625692405708
aF0.26692415597333996
aa(lp170
F0.23601388866799067
aF0.2828186680023389
aF0.24805504770117803
aF0.23311239562849242
aa(lp171
F0.23698984320238958
aF0.25776656722975105
aF0.2434441207780317
aF0.2617994687898276
aa(lp172
F0.22900369464287723
aF0.260867165276427
aF0.2384590536765849
aF0.27167008640411083
aa(lp173
F0.20579113784959926
aF0.30201484052251343
aF0.2578145639245568
aF0.23437945770333035
aasS'train_label'
p174
(lp175
I0
aI3
aI0
aI2
aI3
aI0
aI3
aI3
aI2
aI1
aI2
aI3
aI1
aI1
aI3
aI1
aI1
aI3
aI3
aI3
aI3
aI3
aI2
aI3
aI0
aI1
aI0
aI2
aI2
aI0
aI0
aI2
aI3
aI3
aI2
aI3
aI1
aI1
aI3
aI2
aI3
aI0
aI2
aI2
aI3
aI1
aI1
aI3
aI1
aI2
aI1
aI0
aI1
aI3
aI3
aI2
aI3
aI2
aI1
aI2
aI2
aI0
aI2
aI2
aI2
aI0
aI3
aI2
aI1
aI2
aI1
aI0
aI2
aI0
aI1
aI1
aI3
aI1
aI3
aI0
aI2
aI0
aI0
aI3
aI0
aI3
aI2
aI2
aI2
aI1
aI3
aI3
aI1
aI2
aI1
aI1
aI3
aI1
aI2
aI1
aI0
aI1
aI3
aI2
aI3
aI3
aI3
aI2
aI0
aI0
aI3
aI0
aI1
aI2
aI1
aI3
aI3
aI3
aI1
aI0
aI1
aI0
aI2
aI2
aI1
aI2
aI0
aI3
aI3
aI0
aI1
aI1
aI2
aI1
aI2
aI0
aI3
aI2
aI3
aI1
aI3
aI0
aI3
aI3
aI1
aI1
aI2
aI0
aI0
aI1
aI3
aI1
aI1
aI2
aI2
aI3
aI1
aI1
aI1
aI1
as.